ccopy_reg
_reconstructor
p0
(c__main__
StereoAlignment
p1
c__builtin__
object
p2
Ntp3
Rp4
(dp5
S'a'
p6
cnumpy.core.multiarray
scalar
p7
(cnumpy
dtype
p8
(S'f8'
p9
I0
I1
tp10
Rp11
(I3
S'<'
p12
NNNI-1
I-1
I0
tp13
bS'\xca\xe2\xcb\xe3:\xfd\x8d?'
p14
tp15
Rp16
sS'h'
p17
I0
sS'rc'
p18
cnumpy.core.multiarray
_reconstruct
p19
(cnumpy
ndarray
p20
(I0
tp21
S'b'
p22
tp23
Rp24
(I1
(I2
tp25
g8
(S'f4'
p26
I0
I1
tp27
Rp28
(I3
S'<'
p29
NNNI-1
I-1
I0
tp30
bI00
S'\xe7\x8d\x90C\xf4\x1fRC'
p31
tp32
bsS't'
p33
g19
(g20
(I0
tp34
g22
tp35
Rp36
(I1
(I2
tp37
g28
I00
S'\xc3\x14\xf6\xc2\xd0\n@A'
p38
tp39
bsS'lc'
p40
g19
(g20
(I0
tp41
g22
tp42
Rp43
(I1
(I2
tp44
g28
I00
S'\x17\x13\xceCH\x1fFC'
p45
tp46
bsb.